Certificate:
    Data:
        Version: 3 (0x2)
        Serial Number: 2 (0x2)
        Signature Algorithm: sha1WithRSAEncryption
        Issuer: C=TH, ST=Bangkok, L=Bangkhen, O=Kasetsart University, OU=Department of Computer Engineering, CN=opennebula.hpcnc.com/name=vccloud/emailAddress=knightbaron@gmail.com
        Validity
            Not Before: Nov  4 06:28:55 2012 GMT
            Not After : Nov  2 06:28:55 2022 GMT
        Subject: C=TH, ST=Bangkok, L=Bangkhen, O=Kasetsart University, OU=Department of Computer Engineering, CN=vccloud-client/name=vccloud-client/emailAddress=knightbaron@gmail.com
        Subject Public Key Info:
            Public Key Algorithm: rsaEncryption
                Public-Key: (1024 bit)
                Modulus:
                    00:a6:07:90:69:0e:55:88:f4:71:48:31:89:44:f4:
                    da:54:67:52:19:bb:ca:ba:1a:b4:3c:95:73:6d:f2:
                    ec:00:4e:38:35:d7:17:9a:a1:0b:72:01:3c:ed:56:
                    89:58:82:9f:c1:b2:5d:e2:c5:fb:b1:e9:1e:3d:f3:
                    fd:20:50:64:ad:28:49:14:31:d6:57:57:15:83:15:
                    87:49:51:5b:76:d5:8d:d8:67:69:56:7e:ca:3a:52:
                    1e:e9:0e:00:ab:8f:47:97:45:af:b6:3a:19:c2:0f:
                    22:56:8a:33:13:15:fb:48:3e:9e:f0:49:c2:89:90:
                    9b:f0:38:47:9e:92:6d:a2:f1
                Exponent: 65537 (0x10001)
        X509v3 extensions:
            X509v3 Basic Constraints: 
                CA:FALSE
            Netscape Comment: 
                Easy-RSA Generated Certificate
            X509v3 Subject Key Identifier: 
                32:E6:A3:2B:E5:A5:67:E8:F1:99:A6:3B:69:42:C5:BF:EE:08:0B:40
            X509v3 Authority Key Identifier: 
                keyid:AC:C2:0F:88:49:07:32:32:FE:A3:C8:8B:AE:93:A6:A5:DD:0F:62:33
                DirName:/C=TH/ST=Bangkok/L=Bangkhen/O=Kasetsart University/OU=Department of Computer Engineering/CN=opennebula.hpcnc.com/name=vccloud/emailAddress=knightbaron@gmail.com
                serial:DC:80:63:D6:98:AE:A3:7A

            X509v3 Extended Key Usage: 
                TLS Web Client Authentication
            X509v3 Key Usage: 
                Digital Signature
    Signature Algorithm: sha1WithRSAEncryption
        69:1e:d4:2b:4a:cf:4a:f2:6e:80:e1:49:d4:07:0a:ed:38:f2:
        5b:5a:ec:3a:a8:8f:b9:ec:e6:14:44:24:94:6e:c1:bf:3c:8e:
        23:24:41:97:3d:a4:be:de:9f:29:87:1d:e7:47:73:6b:da:c7:
        b9:7e:8f:62:7f:98:ad:ae:a4:52:1e:57:9e:9d:32:db:86:db:
        47:c4:9d:32:69:e1:35:03:2f:e5:d5:61:c7:62:38:1d:82:14:
        b6:db:73:ca:5c:1d:64:71:01:35:9e:ca:e7:01:29:39:1f:6b:
        1a:10:e6:64:d0:5b:73:4f:02:b5:9a:31:d8:8c:cb:a1:cc:5d:
        8c:60
-----BEGIN CERTIFICATE-----
MIIEszCCBBygAwIBAgIBAjANBgkqhkiG9w0BAQUFADCB1TELMAkGA1UEBhMCVEgx
EDAOBgNVBAgTB0Jhbmdrb2sxETAPBgNVBAcTCEJhbmdraGVuMR0wGwYDVQQKExRL
YXNldHNhcnQgVW5pdmVyc2l0eTErMCkGA1UECxMiRGVwYXJ0bWVudCBvZiBDb21w
dXRlciBFbmdpbmVlcmluZzEdMBsGA1UEAxMUb3Blbm5lYnVsYS5ocGNuYy5jb20x
EDAOBgNVBCkTB3ZjY2xvdWQxJDAiBgkqhkiG9w0BCQEWFWtuaWdodGJhcm9uQGdt
YWlsLmNvbTAeFw0xMjExMDQwNjI4NTVaFw0yMjExMDIwNjI4NTVaMIHWMQswCQYD
VQQGEwJUSDEQMA4GA1UECBMHQmFuZ2tvazERMA8GA1UEBxMIQmFuZ2toZW4xHTAb
BgNVBAoTFEthc2V0c2FydCBVbml2ZXJzaXR5MSswKQYDVQQLEyJEZXBhcnRtZW50
IG9mIENvbXB1dGVyIEVuZ2luZWVyaW5nMRcwFQYDVQQDEw52Y2Nsb3VkLWNsaWVu
dDEXMBUGA1UEKRMOdmNjbG91ZC1jbGllbnQxJDAiBgkqhkiG9w0BCQEWFWtuaWdo
dGJhcm9uQGdtYWlsLmNvbTCBnzANBgkqhkiG9w0BAQEFAAOBjQAwgYkCgYEApgeQ
aQ5ViPRxSDGJRPTaVGdSGbvKuhq0PJVzbfLsAE44NdcXmqELcgE87VaJWIKfwbJd
4sX7sekePfP9IFBkrShJFDHWV1cVgxWHSVFbdtWN2GdpVn7KOlIe6Q4Aq49Hl0Wv
tjoZwg8iVoozExX7SD6e8EnCiZCb8DhHnpJtovECAwEAAaOCAY4wggGKMAkGA1Ud
EwQCMAAwLQYJYIZIAYb4QgENBCAWHkVhc3ktUlNBIEdlbmVyYXRlZCBDZXJ0aWZp
Y2F0ZTAdBgNVHQ4EFgQUMuajK+WlZ+jxmaY7aULFv+4IC0AwggELBgNVHSMEggEC
MIH/gBSswg+ISQcyMv6jyIuuk6al3Q9iM6GB26SB2DCB1TELMAkGA1UEBhMCVEgx
EDAOBgNVBAgTB0Jhbmdrb2sxETAPBgNVBAcTCEJhbmdraGVuMR0wGwYDVQQKExRL
YXNldHNhcnQgVW5pdmVyc2l0eTErMCkGA1UECxMiRGVwYXJ0bWVudCBvZiBDb21w
dXRlciBFbmdpbmVlcmluZzEdMBsGA1UEAxMUb3Blbm5lYnVsYS5ocGNuYy5jb20x
EDAOBgNVBCkTB3ZjY2xvdWQxJDAiBgkqhkiG9w0BCQEWFWtuaWdodGJhcm9uQGdt
YWlsLmNvbYIJANyAY9aYrqN6MBMGA1UdJQQMMAoGCCsGAQUFBwMCMAsGA1UdDwQE
AwIHgDANBgkqhkiG9w0BAQUFAAOBgQBpHtQrSs9K8m6A4UnUBwrtOPJbWuw6qI+5
7OYURCSUbsG/PI4jJEGXPaS+3p8phx3nR3Nr2se5fo9if5itrqRSHleenTLbhttH
xJ0yaeE1Ay/l1WHHYjgdghS223PKXB1kcQE1nsrnASk5H2saEOZk0FtzTwK1mjHY
jMuhzF2MYA==
-----END CERTIFICATE-----
